target datalayout = "e-m:e-p270:32:32-p271:32:32-p272:64:64-i64:64-i128:128-f80:128-n8:16:32:64-S128"
target triple = "x86_64-pc-linux-gnu"

%"class.llvm::StringRef" = type { ptr, i64 }
%"class.__gnu_cxx::__normal_iterator.56" = type { ptr }
%"class.clang::ento::CheckerRegistry" = type { ptr, ptr, ptr }
%"struct.clang::ento::CheckerRegistryData" = type { %"class.llvm::SetVector", %"class.std::vector", %"class.llvm::SmallVector.1", %"class.llvm::StringMap", %"class.llvm::SmallVector.6", %"class.llvm::SmallVector.6", %"class.llvm::SmallVector.11", %"class.llvm::SmallVector.11" }
%"class.llvm::SetVector" = type { %"class.llvm::DenseSet", %"class.llvm::SmallVector" }
%"class.llvm::DenseSet" = type { %"class.llvm::detail::DenseSetImpl" }
%"class.llvm::detail::DenseSetImpl" = type { %"class.llvm::DenseMap" }
%"class.llvm::DenseMap" = type <{ ptr, i32, i32, i32, [4 x i8] }>
%"class.llvm::SmallVector" = type { %"class.llvm::SmallVectorImpl" }
%"class.llvm::SmallVectorImpl" = type { %"class.llvm::SmallVectorTemplateBase" }
%"class.llvm::SmallVectorTemplateBase" = type { %"class.llvm::SmallVectorTemplateCommon" }
%"class.llvm::SmallVectorTemplateCommon" = type { %"class.llvm::SmallVectorBase" }
%"class.llvm::SmallVectorBase" = type { ptr, i32, i32 }
%"class.std::vector" = type { %"struct.std::_Vector_base" }
%"struct.std::_Vector_base" = type { %"struct.std::_Vector_base<clang::ento::CheckerInfo, std::allocator<clang::ento::CheckerInfo>>::_Vector_impl" }
%"struct.std::_Vector_base<clang::ento::CheckerInfo, std::allocator<clang::ento::CheckerInfo>>::_Vector_impl" = type { %"struct.std::_Vector_base<clang::ento::CheckerInfo, std::allocator<clang::ento::CheckerInfo>>::_Vector_impl_data" }
%"struct.std::_Vector_base<clang::ento::CheckerInfo, std::allocator<clang::ento::CheckerInfo>>::_Vector_impl_data" = type { ptr, ptr, ptr }
%"class.llvm::SmallVector.1" = type { %"class.llvm::SmallVectorImpl.2" }
%"class.llvm::SmallVectorImpl.2" = type { %"class.llvm::SmallVectorTemplateBase.3" }
%"class.llvm::SmallVectorTemplateBase.3" = type { %"class.llvm::SmallVectorTemplateCommon.4" }
%"class.llvm::SmallVectorTemplateCommon.4" = type { %"class.llvm::SmallVectorBase" }
%"class.llvm::StringMap" = type { %"class.llvm::StringMapImpl" }
%"class.llvm::StringMapImpl" = type { ptr, i32, i32, i32, i32 }
%"class.llvm::SmallVector.6" = type { %"class.llvm::SmallVectorImpl.7" }
%"class.llvm::SmallVectorImpl.7" = type { %"class.llvm::SmallVectorTemplateBase.8" }
%"class.llvm::SmallVectorTemplateBase.8" = type { %"class.llvm::SmallVectorTemplateCommon.9" }
%"class.llvm::SmallVectorTemplateCommon.9" = type { %"class.llvm::SmallVectorBase" }
%"class.llvm::SmallVector.11" = type { %"class.llvm::SmallVectorImpl.12" }
%"class.llvm::SmallVectorImpl.12" = type { %"class.llvm::SmallVectorTemplateBase.13" }
%"class.llvm::SmallVectorTemplateBase.13" = type { %"class.llvm::SmallVectorTemplateCommon.14" }
%"class.llvm::SmallVectorTemplateCommon.14" = type { %"class.llvm::SmallVectorBase" }
%"struct.clang::ento::CheckerInfo" = type { ptr, ptr, %"class.llvm::StringRef", %"class.llvm::StringRef", %"class.llvm::StringRef", %"class.llvm::SmallVector.57", i8, i32, %"class.llvm::SmallVector", %"class.llvm::SmallVector" }
%"class.llvm::SmallVector.57" = type { %"class.llvm::SmallVectorImpl.58" }
%"class.llvm::SmallVectorImpl.58" = type { %"class.llvm::SmallVectorTemplateBase.59" }
%"class.llvm::SmallVectorTemplateBase.59" = type { %"class.llvm::SmallVectorTemplateCommon.60" }
%"class.llvm::SmallVectorTemplateCommon.60" = type { %"class.llvm::SmallVectorBase" }
%"struct.clang::ento::PackageInfo" = type { %"class.llvm::StringRef", %"class.llvm::SmallVector.57" }
%"struct.clang::ento::CmdLineOption" = type <{ %"class.llvm::StringRef", %"class.llvm::StringRef", %"class.llvm::StringRef", %"class.llvm::StringRef", %"class.llvm::StringRef", i8, [7 x i8] }>
%"struct.std::pair.196" = type { %"class.llvm::StringRef", %"struct.clang::ento::CmdLineOption" }

; Function Attrs: mustprogress nounwind uwtable
define linkonce_odr hidden noundef ptr @_ZNK9__gnu_cxx17__normal_iteratorIPN5clang4ento11CheckerInfoESt6vectorIS3_SaIS3_EEEptEv(ptr noundef nonnull align 8 dereferenceable(8) %0) #0 comdat align 2 {
  %2 = alloca ptr, align 8
  store ptr %0, ptr %2, align 8
  %3 = load ptr, ptr %2, align 8
  %4 = getelementptr inbounds nuw %"class.__gnu_cxx::__normal_iterator.56", ptr %3, i32 0, i32 0
  %5 = load ptr, ptr %4, align 8
  ret ptr %5
}

; Function Attrs: mustprogress nounwind uwtable
define internal void @_ZL24insertOptionToCollectionIN4llvm11SmallVectorIN5clang4ento11PackageInfoELj0EEEEvNS0_9StringRefERT_RKNS3_13CmdLineOptionERNS2_15AnalyzerOptionsERNS2_17DiagnosticsEngineE(ptr %0, i64 %1, ptr noundef nonnull align 8 dereferenceable(16) %2, ptr noundef nonnull align 8 dereferenceable(81) %3, ptr noundef nonnull align 8 dereferenceable(488) %4, ptr noundef nonnull align 8 dereferenceable(1304) %5) #0 {
  %7 = alloca %"class.llvm::StringRef", align 8
  %8 = alloca ptr, align 8
  %9 = alloca ptr, align 8
  %10 = alloca ptr, align 8
  %11 = alloca ptr, align 8
  %12 = alloca ptr, align 8
  %13 = alloca %"class.llvm::StringRef", align 8
  %14 = alloca %"class.llvm::StringRef", align 8
  %15 = getelementptr inbounds nuw { ptr, i64 }, ptr %7, i32 0, i32 0
  store ptr %0, ptr %15, align 8
  %16 = getelementptr inbounds nuw { ptr, i64 }, ptr %7, i32 0, i32 1
  store i64 %1, ptr %16, align 8
  store ptr %2, ptr %8, align 8
  store ptr %3, ptr %9, align 8
  store ptr %4, ptr %10, align 8
  store ptr %5, ptr %11, align 8
  %17 = load ptr, ptr %8, align 8
  call void @llvm.memcpy.p0.p0.i64(ptr align 8 %13, ptr align 8 %7, i64 16, i1 false)
  %18 = getelementptr inbounds nuw { ptr, i64 }, ptr %13, i32 0, i32 0
  %19 = load ptr, ptr %18, align 8
  %20 = getelementptr inbounds nuw { ptr, i64 }, ptr %13, i32 0, i32 1
  %21 = load i64, ptr %20, align 8
  %22 = call noundef ptr @_ZN5clang4ento16checker_registry10binaryFindIN4llvm11SmallVectorINS0_11PackageInfoELj0EEEEENSt11conditionalIXsr3std8is_constIT_EE5valueENS8_14const_iteratorENS8_8iteratorEE4typeERS8_NS3_9StringRefE(ptr noundef nonnull align 8 dereferenceable(16) %17, ptr %19, i64 %21)
  store ptr %22, ptr %12, align 8
  call void @llvm.memcpy.p0.p0.i64(ptr align 8 %14, ptr align 8 %7, i64 16, i1 false)
  %23 = load ptr, ptr %9, align 8
  %24 = load ptr, ptr %10, align 8
  %25 = load ptr, ptr %11, align 8
  %26 = getelementptr inbounds nuw { ptr, i64 }, ptr %14, i32 0, i32 0
  %27 = load ptr, ptr %26, align 8
  %28 = getelementptr inbounds nuw { ptr, i64 }, ptr %14, i32 0, i32 1
  %29 = load i64, ptr %28, align 8
  call void @_ZL17insertAndValidateN4llvm9StringRefERKN5clang4ento13CmdLineOptionERNS1_15AnalyzerOptionsERNS1_17DiagnosticsEngineE(ptr %27, i64 %29, ptr noundef nonnull align 8 dereferenceable(81) %23, ptr noundef nonnull align 8 dereferenceable(488) %24, ptr noundef nonnull align 8 dereferenceable(1304) %25)
  %30 = load ptr, ptr %12, align 8
  %31 = getelementptr inbounds nuw %"struct.clang::ento::PackageInfo", ptr %30, i32 0, i32 1
  %32 = load ptr, ptr %9, align 8
  %33 = call noundef nonnull align 8 dereferenceable(81) ptr @_ZN4llvm15SmallVectorImplIN5clang4ento13CmdLineOptionEE12emplace_backIJRKS3_EEERS3_DpOT_(ptr noundef nonnull align 8 dereferenceable(16) %31, ptr noundef nonnull align 8 dereferenceable(81) %32)
  ret void
}

; Function Attrs: mustprogress nounwind uwtable
define internal void @_ZL24insertOptionToCollectionISt6vectorIN5clang4ento11CheckerInfoESaIS3_EEEvN4llvm9StringRefERT_RKNS2_13CmdLineOptionERNS1_15AnalyzerOptionsERNS1_17DiagnosticsEngineE(ptr %0, i64 %1, ptr noundef nonnull align 8 dereferenceable(24) %2, ptr noundef nonnull align 8 dereferenceable(81) %3, ptr noundef nonnull align 8 dereferenceable(488) %4, ptr noundef nonnull align 8 dereferenceable(1304) %5) #0 {
  %7 = alloca %"class.llvm::StringRef", align 8
  %8 = alloca ptr, align 8
  %9 = alloca ptr, align 8
  %10 = alloca ptr, align 8
  %11 = alloca ptr, align 8
  %12 = alloca %"class.__gnu_cxx::__normal_iterator.56", align 8
  %13 = alloca %"class.llvm::StringRef", align 8
  %14 = alloca %"class.llvm::StringRef", align 8
  %15 = getelementptr inbounds nuw { ptr, i64 }, ptr %7, i32 0, i32 0
  store ptr %0, ptr %15, align 8
  %16 = getelementptr inbounds nuw { ptr, i64 }, ptr %7, i32 0, i32 1
  store i64 %1, ptr %16, align 8
  store ptr %2, ptr %8, align 8
  store ptr %3, ptr %9, align 8
  store ptr %4, ptr %10, align 8
  store ptr %5, ptr %11, align 8
  %17 = load ptr, ptr %8, align 8
  call void @llvm.memcpy.p0.p0.i64(ptr align 8 %13, ptr align 8 %7, i64 16, i1 false)
  %18 = getelementptr inbounds nuw { ptr, i64 }, ptr %13, i32 0, i32 0
  %19 = load ptr, ptr %18, align 8
  %20 = getelementptr inbounds nuw { ptr, i64 }, ptr %13, i32 0, i32 1
  %21 = load i64, ptr %20, align 8
  %22 = call ptr @_ZN5clang4ento16checker_registry10binaryFindISt6vectorINS0_11CheckerInfoESaIS4_EEEENSt11conditionalIXsr3std8is_constIT_EE5valueENS8_14const_iteratorENS8_8iteratorEE4typeERS8_N4llvm9StringRefE(ptr noundef nonnull align 8 dereferenceable(24) %17, ptr %19, i64 %21)
  %23 = getelementptr inbounds nuw %"class.__gnu_cxx::__normal_iterator.56", ptr %12, i32 0, i32 0
  store ptr %22, ptr %23, align 8
  call void @llvm.memcpy.p0.p0.i64(ptr align 8 %14, ptr align 8 %7, i64 16, i1 false)
  %24 = load ptr, ptr %9, align 8
  %25 = load ptr, ptr %10, align 8
  %26 = load ptr, ptr %11, align 8
  %27 = getelementptr inbounds nuw { ptr, i64 }, ptr %14, i32 0, i32 0
  %28 = load ptr, ptr %27, align 8
  %29 = getelementptr inbounds nuw { ptr, i64 }, ptr %14, i32 0, i32 1
  %30 = load i64, ptr %29, align 8
  call void @_ZL17insertAndValidateN4llvm9StringRefERKN5clang4ento13CmdLineOptionERNS1_15AnalyzerOptionsERNS1_17DiagnosticsEngineE(ptr %28, i64 %30, ptr noundef nonnull align 8 dereferenceable(81) %24, ptr noundef nonnull align 8 dereferenceable(488) %25, ptr noundef nonnull align 8 dereferenceable(1304) %26)
  %31 = call noundef ptr @_ZNK9__gnu_cxx17__normal_iteratorIPN5clang4ento11CheckerInfoESt6vectorIS3_SaIS3_EEEptEv(ptr noundef nonnull align 8 dereferenceable(8) %12) #11
  %32 = getelementptr inbounds nuw %"struct.clang::ento::CheckerInfo", ptr %31, i32 0, i32 5
  %33 = load ptr, ptr %9, align 8
  %34 = call noundef nonnull align 8 dereferenceable(81) ptr @_ZN4llvm15SmallVectorImplIN5clang4ento13CmdLineOptionEE12emplace_backIJRKS3_EEERS3_DpOT_(ptr noundef nonnull align 8 dereferenceable(16) %32, ptr noundef nonnull align 8 dereferenceable(81) %33)
  ret void
}

; Function Attrs: mustprogress nounwind uwtable
define linkonce_odr hidden noundef ptr @_ZN4llvm25SmallVectorTemplateCommonISt4pairINS_9StringRefEN5clang4ento13CmdLineOptionEEvE3endEv(ptr noundef nonnull align 8 dereferenceable(16) %0) #0 comdat align 2 {
  %2 = alloca ptr, align 8
  store ptr %0, ptr %2, align 8
  %3 = load ptr, ptr %2, align 8
  %4 = call noundef ptr @_ZN4llvm25SmallVectorTemplateCommonISt4pairINS_9StringRefEN5clang4ento13CmdLineOptionEEvE5beginEv(ptr noundef nonnull align 8 dereferenceable(16) %3)
  %5 = call noundef i64 @_ZNK4llvm15SmallVectorBaseIjE4sizeEv(ptr noundef nonnull align 8 dereferenceable(16) %3)
  %6 = getelementptr inbounds %"struct.std::pair.196", ptr %4, i64 %5
  ret ptr %6
}

; Function Attrs: mustprogress nounwind uwtable
define linkonce_odr hidden noundef ptr @_ZN4llvm25SmallVectorTemplateCommonISt4pairINS_9StringRefEN5clang4ento13CmdLineOptionEEvE5beginEv(ptr noundef nonnull align 8 dereferenceable(16) %0) #0 comdat align 2 {
  %2 = alloca ptr, align 8
  store ptr %0, ptr %2, align 8
  %3 = load ptr, ptr %2, align 8
  %4 = getelementptr inbounds nuw %"class.llvm::SmallVectorBase", ptr %3, i32 0, i32 0
  %5 = load ptr, ptr %4, align 8
  ret ptr %5
}

; Function Attrs: mustprogress nounwind uwtable
define dso_local void @_ZN5clang4ento15CheckerRegistry31resolveCheckerAndPackageOptionsEv(ptr noundef nonnull align 8 dereferenceable(24) %0) #0 align 2 {
  %2 = alloca ptr, align 8
  %3 = alloca ptr, align 8
  %4 = alloca ptr, align 8
  %5 = alloca ptr, align 8
  %6 = alloca ptr, align 8
  %7 = alloca %"class.llvm::StringRef", align 8
  %8 = alloca ptr, align 8
  %9 = alloca ptr, align 8
  %10 = alloca ptr, align 8
  %11 = alloca ptr, align 8
  %12 = alloca %"class.llvm::StringRef", align 8
  store ptr %0, ptr %2, align 8
  %13 = load ptr, ptr %2, align 8
  %14 = getelementptr inbounds nuw %"class.clang::ento::CheckerRegistry", ptr %13, i32 0, i32 0
  %15 = load ptr, ptr %14, align 8
  %16 = getelementptr inbounds nuw %"struct.clang::ento::CheckerRegistryData", ptr %15, i32 0, i32 5
  store ptr %16, ptr %3, align 8
  %17 = load ptr, ptr %3, align 8
  %18 = call noundef ptr @_ZN4llvm25SmallVectorTemplateCommonISt4pairINS_9StringRefEN5clang4ento13CmdLineOptionEEvE5beginEv(ptr noundef nonnull align 8 dereferenceable(16) %17)
  store ptr %18, ptr %4, align 8
  %19 = load ptr, ptr %3, align 8
  %20 = call noundef ptr @_ZN4llvm25SmallVectorTemplateCommonISt4pairINS_9StringRefEN5clang4ento13CmdLineOptionEEvE3endEv(ptr noundef nonnull align 8 dereferenceable(16) %19)
  store ptr %20, ptr %5, align 8
  br label %21

21:                                               ; preds = %42, %1
  %22 = load ptr, ptr %4, align 8
  %23 = load ptr, ptr %5, align 8
  %24 = icmp ne ptr %22, %23
  br i1 %24, label %25, label %45

25:                                               ; preds = %21
  %26 = load ptr, ptr %4, align 8
  store ptr %26, ptr %6, align 8
  %27 = load ptr, ptr %6, align 8
  %28 = getelementptr inbounds nuw %"struct.std::pair.196", ptr %27, i32 0, i32 0
  call void @llvm.memcpy.p0.p0.i64(ptr align 8 %7, ptr align 8 %28, i64 16, i1 false)
  %29 = getelementptr inbounds nuw %"class.clang::ento::CheckerRegistry", ptr %13, i32 0, i32 0
  %30 = load ptr, ptr %29, align 8
  %31 = getelementptr inbounds nuw %"struct.clang::ento::CheckerRegistryData", ptr %30, i32 0, i32 1
  %32 = load ptr, ptr %6, align 8
  %33 = getelementptr inbounds nuw %"struct.std::pair.196", ptr %32, i32 0, i32 1
  %34 = getelementptr inbounds nuw %"class.clang::ento::CheckerRegistry", ptr %13, i32 0, i32 2
  %35 = load ptr, ptr %34, align 8
  %36 = getelementptr inbounds nuw %"class.clang::ento::CheckerRegistry", ptr %13, i32 0, i32 1
  %37 = load ptr, ptr %36, align 8
  %38 = getelementptr inbounds nuw { ptr, i64 }, ptr %7, i32 0, i32 0
  %39 = load ptr, ptr %38, align 8
  %40 = getelementptr inbounds nuw { ptr, i64 }, ptr %7, i32 0, i32 1
  %41 = load i64, ptr %40, align 8
  call void @_ZL24insertOptionToCollectionISt6vectorIN5clang4ento11CheckerInfoESaIS3_EEEvN4llvm9StringRefERT_RKNS2_13CmdLineOptionERNS1_15AnalyzerOptionsERNS1_17DiagnosticsEngineE(ptr %39, i64 %41, ptr noundef nonnull align 8 dereferenceable(24) %31, ptr noundef nonnull align 8 dereferenceable(81) %33, ptr noundef nonnull align 8 dereferenceable(488) %35, ptr noundef nonnull align 8 dereferenceable(1304) %37)
  br label %42

42:                                               ; preds = %25
  %43 = load ptr, ptr %4, align 8
  %44 = getelementptr inbounds %"struct.std::pair.196", ptr %43, i32 1
  store ptr %44, ptr %4, align 8
  br label %21

45:                                               ; preds = %21
  %46 = getelementptr inbounds nuw %"class.clang::ento::CheckerRegistry", ptr %13, i32 0, i32 0
  %47 = load ptr, ptr %46, align 8
  %48 = getelementptr inbounds nuw %"struct.clang::ento::CheckerRegistryData", ptr %47, i32 0, i32 4
  store ptr %48, ptr %8, align 8
  %49 = load ptr, ptr %8, align 8
  %50 = call noundef ptr @_ZN4llvm25SmallVectorTemplateCommonISt4pairINS_9StringRefEN5clang4ento13CmdLineOptionEEvE5beginEv(ptr noundef nonnull align 8 dereferenceable(16) %49)
  store ptr %50, ptr %9, align 8
  %51 = load ptr, ptr %8, align 8
  %52 = call noundef ptr @_ZN4llvm25SmallVectorTemplateCommonISt4pairINS_9StringRefEN5clang4ento13CmdLineOptionEEvE3endEv(ptr noundef nonnull align 8 dereferenceable(16) %51)
  store ptr %52, ptr %10, align 8
  br label %53

53:                                               ; preds = %74, %45
  %54 = load ptr, ptr %9, align 8
  %55 = load ptr, ptr %10, align 8
  %56 = icmp ne ptr %54, %55
  br i1 %56, label %57, label %77

57:                                               ; preds = %53
  %58 = load ptr, ptr %9, align 8
  store ptr %58, ptr %11, align 8
  %59 = load ptr, ptr %11, align 8
  %60 = getelementptr inbounds nuw %"struct.std::pair.196", ptr %59, i32 0, i32 0
  call void @llvm.memcpy.p0.p0.i64(ptr align 8 %12, ptr align 8 %60, i64 16, i1 false)
  %61 = getelementptr inbounds nuw %"class.clang::ento::CheckerRegistry", ptr %13, i32 0, i32 0
  %62 = load ptr, ptr %61, align 8
  %63 = getelementptr inbounds nuw %"struct.clang::ento::CheckerRegistryData", ptr %62, i32 0, i32 2
  %64 = load ptr, ptr %11, align 8
  %65 = getelementptr inbounds nuw %"struct.std::pair.196", ptr %64, i32 0, i32 1
  %66 = getelementptr inbounds nuw %"class.clang::ento::CheckerRegistry", ptr %13, i32 0, i32 2
  %67 = load ptr, ptr %66, align 8
  %68 = getelementptr inbounds nuw %"class.clang::ento::CheckerRegistry", ptr %13, i32 0, i32 1
  %69 = load ptr, ptr %68, align 8
  %70 = getelementptr inbounds nuw { ptr, i64 }, ptr %12, i32 0, i32 0
  %71 = load ptr, ptr %70, align 8
  %72 = getelementptr inbounds nuw { ptr, i64 }, ptr %12, i32 0, i32 1
  %73 = load i64, ptr %72, align 8
  call void @_ZL24insertOptionToCollectionIN4llvm11SmallVectorIN5clang4ento11PackageInfoELj0EEEEvNS0_9StringRefERT_RKNS3_13CmdLineOptionERNS2_15AnalyzerOptionsERNS2_17DiagnosticsEngineE(ptr %71, i64 %73, ptr noundef nonnull align 8 dereferenceable(16) %63, ptr noundef nonnull align 8 dereferenceable(81) %65, ptr noundef nonnull align 8 dereferenceable(488) %67, ptr noundef nonnull align 8 dereferenceable(1304) %69)
  br label %74

74:                                               ; preds = %57
  %75 = load ptr, ptr %9, align 8
  %76 = getelementptr inbounds %"struct.std::pair.196", ptr %75, i32 1
  store ptr %76, ptr %9, align 8
  br label %53

77:                                               ; preds = %53
  ret void
}