; Function Attrs: mustprogress nounwind uwtable
define dso_local void @_ZN5clang4ento15CheckerRegistry31resolveCheckerAndPackageOptionsEv(ptr nocapture noundef nonnull readonly align 8 dereferenceable(24) %0) local_unnamed_addr #0 align 2 {
  %2 = load ptr, ptr %0, align 8
  %3 = getelementptr inbounds nuw i8, ptr %2, i64 120
  %4 = load ptr, ptr %3, align 8
  %5 = tail call noundef i64 @_ZNK4llvm15SmallVectorBaseIjE4sizeEv(ptr noundef nonnull align 8 dereferenceable(16) %3) #16
  %6 = getelementptr inbounds %"struct.std::pair.196", ptr %4, i64 %5
  %.not21 = icmp eq i64 %5, 0
  br i1 %.not21, label %._crit_edge, label %.lr.ph

.lr.ph:                                           ; preds = %1
  %7 = getelementptr inbounds nuw i8, ptr %0, i64 16
  %8 = getelementptr inbounds nuw i8, ptr %0, i64 8
  br label %9

9:                                                ; preds = %.lr.ph, %9
  %.022 = phi ptr [ %4, %.lr.ph ], [ %18, %9 ]
  %.sroa.08.0.copyload = load ptr, ptr %.022, align 8
  %.sroa.29.0..sroa_idx = getelementptr inbounds i8, ptr %.022, i64 8
  %.sroa.29.0.copyload = load i64, ptr %.sroa.29.0..sroa_idx, align 8
  %10 = load ptr, ptr %0, align 8
  %11 = getelementptr inbounds nuw i8, ptr %10, i64 40
  %12 = getelementptr inbounds nuw i8, ptr %.022, i64 16
  %13 = load ptr, ptr %7, align 8
  %14 = load ptr, ptr %8, align 8
  %15 = tail call ptr @_ZN5clang4ento16checker_registry10binaryFindISt6vectorINS0_11CheckerInfoESaIS4_EEEENSt11conditionalIXsr3std8is_constIT_EE5valueENS8_14const_iteratorENS8_8iteratorEE4typeERS8_N4llvm9StringRefE(ptr noundef nonnull align 8 dereferenceable(24) %11, ptr %.sroa.08.0.copyload, i64 %.sroa.29.0.copyload)
  tail call fastcc void @_ZL17insertAndValidateN4llvm9StringRefERKN5clang4ento13CmdLineOptionERNS1_15AnalyzerOptionsERNS1_17DiagnosticsEngineE(ptr %.sroa.08.0.copyload, i64 %.sroa.29.0.copyload, ptr noundef nonnull align 8 dereferenceable(81) %12, ptr noundef nonnull align 8 dereferenceable(488) %13, ptr noundef nonnull align 8 dereferenceable(1304) %14)
  %16 = getelementptr inbounds nuw i8, ptr %15, i64 64
  %17 = tail call noundef nonnull align 8 dereferenceable(81) ptr @_ZN4llvm15SmallVectorImplIN5clang4ento13CmdLineOptionEE12emplace_backIJRKS3_EEERS3_DpOT_(ptr noundef nonnull align 8 dereferenceable(16) %16, ptr noundef nonnull align 8 dereferenceable(81) %12)
  %18 = getelementptr inbounds i8, ptr %.022, i64 104
  %.not = icmp eq ptr %18, %6
  br i1 %.not, label %._crit_edge, label %9

._crit_edge:                                      ; preds = %9, %1
  %19 = load ptr, ptr %0, align 8
  %20 = getelementptr inbounds nuw i8, ptr %19, i64 104
  %21 = load ptr, ptr %20, align 8
  %22 = tail call noundef i64 @_ZNK4llvm15SmallVectorBaseIjE4sizeEv(ptr noundef nonnull align 8 dereferenceable(16) %20) #16
  %23 = getelementptr inbounds %"struct.std::pair.196", ptr %21, i64 %22
  %.not2023 = icmp eq i64 %22, 0
  br i1 %.not2023, label %._crit_edge27, label %.lr.ph26

.lr.ph26:                                         ; preds = %._crit_edge
  %24 = getelementptr inbounds nuw i8, ptr %0, i64 16
  %25 = getelementptr inbounds nuw i8, ptr %0, i64 8
  br label %26

26:                                               ; preds = %.lr.ph26, %26
  %.01924 = phi ptr [ %21, %.lr.ph26 ], [ %35, %26 ]
  %.sroa.0.0.copyload = load ptr, ptr %.01924, align 8
  %.sroa.2.0..sroa_idx = getelementptr inbounds i8, ptr %.01924, i64 8
  %.sroa.2.0.copyload = load i64, ptr %.sroa.2.0..sroa_idx, align 8
  %27 = load ptr, ptr %0, align 8
  %28 = getelementptr inbounds nuw i8, ptr %27, i64 64
  %29 = getelementptr inbounds nuw i8, ptr %.01924, i64 16
  %30 = load ptr, ptr %24, align 8
  %31 = load ptr, ptr %25, align 8
  %32 = tail call noundef ptr @_ZN5clang4ento16checker_registry10binaryFindIN4llvm11SmallVectorINS0_11PackageInfoELj0EEEEENSt11conditionalIXsr3std8is_constIT_EE5valueENS8_14const_iteratorENS8_8iteratorEE4typeERS8_NS3_9StringRefE(ptr noundef nonnull align 8 dereferenceable(16) %28, ptr %.sroa.0.0.copyload, i64 %.sroa.2.0.copyload)
  tail call fastcc void @_ZL17insertAndValidateN4llvm9StringRefERKN5clang4ento13CmdLineOptionERNS1_15AnalyzerOptionsERNS1_17DiagnosticsEngineE(ptr %.sroa.0.0.copyload, i64 %.sroa.2.0.copyload, ptr noundef nonnull align 8 dereferenceable(81) %29, ptr noundef nonnull align 8 dereferenceable(488) %30, ptr noundef nonnull align 8 dereferenceable(1304) %31)
  %33 = getelementptr inbounds nuw i8, ptr %32, i64 16
  %34 = tail call noundef nonnull align 8 dereferenceable(81) ptr @_ZN4llvm15SmallVectorImplIN5clang4ento13CmdLineOptionEE12emplace_backIJRKS3_EEERS3_DpOT_(ptr noundef nonnull align 8 dereferenceable(16) %33, ptr noundef nonnull align 8 dereferenceable(81) %29)
  %35 = getelementptr inbounds i8, ptr %.01924, i64 104
  %.not20 = icmp eq ptr %35, %23
  br i1 %.not20, label %._crit_edge27, label %26

._crit_edge27:                                    ; preds = %26, %._crit_edge
  ret void
}